target datalayout = "e-m:e-p270:32:32-p271:32:32-p272:64:64-i64:64-i128:128-f80:128-n8:16:32:64-S128"
target triple = "x86_64-unknown-linux-gnu"

%"struct.facebook::velox::HashStringAllocator::Position" = type { ptr, ptr }
%"struct.facebook::velox::functions::aggregate::SingleValueAccumulator" = type { %"struct.facebook::velox::HashStringAllocator::Position" }

; Function Attrs: mustprogress uwtable
define void @_ZN8facebook5velox9functions9aggregate22SingleValueAccumulator7destroyEPNS0_19HashStringAllocatorE(ptr noundef nonnull align 8 dereferenceable(16) %this, ptr noundef %allocator) #0 align 2 {
entry:
  %this.addr = alloca ptr, align 8
  %allocator.addr = alloca ptr, align 8
  store ptr %this, ptr %this.addr, align 8
  store ptr %allocator, ptr %allocator.addr, align 8
  %this1 = load ptr, ptr %this.addr, align 8
  %start_ = getelementptr inbounds %"struct.facebook::velox::functions::aggregate::SingleValueAccumulator", ptr %this1, i32 0, i32 0
  %header = getelementptr inbounds %"struct.facebook::velox::HashStringAllocator::Position", ptr %start_, i32 0, i32 0
  %0 = load ptr, ptr %header, align 8
  %cmp = icmp ne ptr %0, null
  br i1 %cmp, label %if.then, label %if.end

if.then:                                          ; preds = %entry
  %1 = load ptr, ptr %allocator.addr, align 8
  %start_2 = getelementptr inbounds %"struct.facebook::velox::functions::aggregate::SingleValueAccumulator", ptr %this1, i32 0, i32 0
  %header3 = getelementptr inbounds %"struct.facebook::velox::HashStringAllocator::Position", ptr %start_2, i32 0, i32 0
  %2 = load ptr, ptr %header3, align 8
  call void @_ZN8facebook5velox19HashStringAllocator4freeEPNS1_6HeaderE(ptr noundef nonnull align 8 dereferenceable(37416) %1, ptr noundef %2)
  %start_4 = getelementptr inbounds %"struct.facebook::velox::functions::aggregate::SingleValueAccumulator", ptr %this1, i32 0, i32 0
  %header5 = getelementptr inbounds %"struct.facebook::velox::HashStringAllocator::Position", ptr %start_4, i32 0, i32 0
  store ptr null, ptr %header5, align 8
  br label %if.end

if.end:                                           ; preds = %if.then, %entry
  ret void
}