; Function Attrs: mustprogress uwtable
define void @_ZN8facebook5velox9functions9aggregate22SingleValueAccumulator7destroyEPNS0_19HashStringAllocatorE(ptr nocapture noundef nonnull align 8 dereferenceable(16) %this, ptr noundef %allocator) local_unnamed_addr #0 align 2 {
entry:
  %0 = load ptr, ptr %this, align 8
  %cmp.not = icmp eq ptr %0, null
  br i1 %cmp.not, label %if.end, label %if.then

if.then:                                          ; preds = %entry
  tail call void @_ZN8facebook5velox19HashStringAllocator4freeEPNS1_6HeaderE(ptr noundef nonnull align 8 dereferenceable(37416) %allocator, ptr noundef nonnull %0)
  store ptr null, ptr %this, align 8
  br label %if.end

if.end:                                           ; preds = %if.then, %entry
  ret void
}